; ModuleID = '11/392.c'
source_filename = "11/392.c"
target datalayout = "e-m:e-p270:32:32-p271:32:32-p272:64:64-i64:64-f80:128-n8:16:32:64-S128"
target triple = "x86_64-pc-linux-gnu"

@.str = private unnamed_addr constant [7 x i8] c"%d%d%d\00", align 1
@__const.main.m = private unnamed_addr constant [12 x i32] [i32 31, i32 29, i32 31, i32 30, i32 31, i32 30, i32 31, i32 31, i32 30, i32 31, i32 30, i32 31], align 16
@.str.1 = private unnamed_addr constant [3 x i8] c"%d\00", align 1
@__const.main.m.2 = private unnamed_addr constant [12 x i32] [i32 31, i32 28, i32 31, i32 30, i32 31, i32 30, i32 31, i32 31, i32 30, i32 31, i32 30, i32 31], align 16

; Function Attrs: noinline nounwind uwtable
define dso_local i32 @main(i32 %0, i8** %1) #0 {
  %3 = alloca i32, align 4
  %4 = alloca i32, align 4
  %5 = alloca i8**, align 8
  %6 = alloca i32, align 4
  %7 = alloca i32, align 4
  %8 = alloca i32, align 4
  %9 = alloca [12 x i32], align 16
  %10 = alloca i32, align 4
  %11 = alloca i32, align 4
  %12 = alloca [12 x i32], align 16
  %13 = alloca i32, align 4
  %14 = alloca i32, align 4
  store i32 0, i32* %3, align 4
  store i32 %0, i32* %4, align 4
  store i8** %1, i8*** %5, align 8
  %15 = call i32 (i8*, ...) @__isoc99_scanf(i8* getelementptr inbounds ([7 x i8], [7 x i8]* @.str, i64 0, i64 0), i32* %6, i32* %7, i32* %8)
  %16 = load i32, i32* %6, align 4
  %17 = srem i32 %16, 4
  %18 = icmp eq i32 %17, 0
  br i1 %18, label %19, label %23

19:                                               ; preds = %2
  %20 = load i32, i32* %6, align 4
  %21 = srem i32 %20, 100
  %22 = icmp ne i32 %21, 0
  br i1 %22, label %27, label %23

23:                                               ; preds = %19, %2
  %24 = load i32, i32* %6, align 4
  %25 = srem i32 %24, 400
  %26 = icmp eq i32 %25, 0
  br i1 %26, label %27, label %50

27:                                               ; preds = %23, %19
  %28 = bitcast [12 x i32]* %9 to i8*
  call void @llvm.memcpy.p0i8.p0i8.i64(i8* align 16 %28, i8* align 16 bitcast ([12 x i32]* @__const.main.m to i8*), i64 48, i1 false)
  store i32 0, i32* %11, align 4
  store i32 0, i32* %10, align 4
  br label %29

29:                                               ; preds = %41, %27
  %30 = load i32, i32* %10, align 4
  %31 = load i32, i32* %7, align 4
  %32 = sub nsw i32 %31, 1
  %33 = icmp slt i32 %30, %32
  br i1 %33, label %34, label %44

34:                                               ; preds = %29
  %35 = load i32, i32* %11, align 4
  %36 = load i32, i32* %10, align 4
  %37 = sext i32 %36 to i64
  %38 = getelementptr inbounds [12 x i32], [12 x i32]* %9, i64 0, i64 %37
  %39 = load i32, i32* %38, align 4
  %40 = add nsw i32 %35, %39
  store i32 %40, i32* %11, align 4
  br label %41

41:                                               ; preds = %34
  %42 = load i32, i32* %10, align 4
  %43 = add nsw i32 %42, 1
  store i32 %43, i32* %10, align 4
  br label %29

44:                                               ; preds = %29
  %45 = load i32, i32* %11, align 4
  %46 = load i32, i32* %8, align 4
  %47 = add nsw i32 %45, %46
  store i32 %47, i32* %11, align 4
  %48 = load i32, i32* %11, align 4
  %49 = call i32 (i8*, ...) @printf(i8* getelementptr inbounds ([3 x i8], [3 x i8]* @.str.1, i64 0, i64 0), i32 %48)
  br label %73

50:                                               ; preds = %23
  %51 = bitcast [12 x i32]* %12 to i8*
  call void @llvm.memcpy.p0i8.p0i8.i64(i8* align 16 %51, i8* align 16 bitcast ([12 x i32]* @__const.main.m.2 to i8*), i64 48, i1 false)
  store i32 0, i32* %14, align 4
  store i32 0, i32* %13, align 4
  br label %52

52:                                               ; preds = %64, %50
  %53 = load i32, i32* %13, align 4
  %54 = load i32, i32* %7, align 4
  %55 = sub nsw i32 %54, 1
  %56 = icmp slt i32 %53, %55
  br i1 %56, label %57, label %67

57:                                               ; preds = %52
  %58 = load i32, i32* %14, align 4
  %59 = load i32, i32* %13, align 4
  %60 = sext i32 %59 to i64
  %61 = getelementptr inbounds [12 x i32], [12 x i32]* %12, i64 0, i64 %60
  %62 = load i32, i32* %61, align 4
  %63 = add nsw i32 %58, %62
  store i32 %63, i32* %14, align 4
  br label %64

64:                                               ; preds = %57
  %65 = load i32, i32* %13, align 4
  %66 = add nsw i32 %65, 1
  store i32 %66, i32* %13, align 4
  br label %52

67:                                               ; preds = %52
  %68 = load i32, i32* %14, align 4
  %69 = load i32, i32* %8, align 4
  %70 = add nsw i32 %68, %69
  store i32 %70, i32* %14, align 4
  %71 = load i32, i32* %14, align 4
  %72 = call i32 (i8*, ...) @printf(i8* getelementptr inbounds ([3 x i8], [3 x i8]* @.str.1, i64 0, i64 0), i32 %71)
  br label %73

73:                                               ; preds = %67, %44
  ret i32 0
}

declare dso_local i32 @__isoc99_scanf(i8*, ...) #1

; Function Attrs: argmemonly nounwind willreturn
declare void @llvm.memcpy.p0i8.p0i8.i64(i8* noalias nocapture writeonly, i8* noalias nocapture readonly, i64, i1 immarg) #2

declare dso_local i32 @printf(i8*, ...) #1


!llvm.module.flags = !{!0}
!llvm.ident = !{!1}

!0 = !{i32 1, !"wchar_size", i32 4}
!1 = !{!"clang version 10.0.0-4ubuntu1 "}
