; ModuleID = 'source-C-CXX/10/392.c'
source_filename = "source-C-CXX/10/392.c"
target datalayout = "e-m:e-p270:32:32-p271:32:32-p272:64:64-i64:64-f80:128-n8:16:32:64-S128"
target triple = "x86_64-pc-linux-gnu"

@.str = private unnamed_addr constant [7 x i8] c"%d%d%d\00", align 1
@__const.main.m = private unnamed_addr constant [12 x i32] [i32 31, i32 29, i32 31, i32 30, i32 31, i32 30, i32 31, i32 31, i32 30, i32 31, i32 30, i32 31], align 16
@.str.1 = private unnamed_addr constant [3 x i8] c"%d\00", align 1
@__const.main.m.2 = private unnamed_addr constant [12 x i32] [i32 31, i32 28, i32 31, i32 30, i32 31, i32 30, i32 31, i32 31, i32 30, i32 31, i32 30, i32 31], align 16

; Function Attrs: nofree nounwind sspstrong uwtable
define dso_local i32 @main(i32 %0, i8** nocapture readnone %1) local_unnamed_addr #0 {
  %3 = alloca i32, align 4
  %4 = alloca i32, align 4
  %5 = alloca i32, align 4
  %6 = bitcast i32* %3 to i8*
  call void @llvm.lifetime.start.p0i8(i64 4, i8* nonnull %6) #4
  %7 = bitcast i32* %4 to i8*
  call void @llvm.lifetime.start.p0i8(i64 4, i8* nonnull %7) #4
  %8 = bitcast i32* %5 to i8*
  call void @llvm.lifetime.start.p0i8(i64 4, i8* nonnull %8) #4
  %9 = call i32 (i8*, ...) @__isoc99_scanf(i8* getelementptr inbounds ([7 x i8], [7 x i8]* @.str, i64 0, i64 0), i32* nonnull %3, i32* nonnull %4, i32* nonnull %5)
  %10 = load i32, i32* %3, align 4, !tbaa !5
  %11 = and i32 %10, 3
  %12 = icmp eq i32 %11, 0
  %13 = srem i32 %10, 100
  %14 = icmp ne i32 %13, 0
  %15 = and i1 %12, %14
  %16 = srem i32 %10, 400
  %17 = icmp eq i32 %16, 0
  %18 = select i1 %15, i1 true, i1 %17
  %19 = load i32, i32* %4, align 4, !tbaa !5
  %20 = icmp sgt i32 %19, 1
  br i1 %18, label %110, label %21

21:                                               ; preds = %2
  br i1 %20, label %22, label %219

22:                                               ; preds = %21
  %23 = add nsw i32 %19, -1
  %24 = zext i32 %23 to i64
  %25 = icmp ult i32 %23, 8
  br i1 %25, label %107, label %26

26:                                               ; preds = %22
  %27 = and i64 %24, 4294967288
  %28 = add nsw i64 %27, -8
  %29 = lshr exact i64 %28, 3
  %30 = add nuw nsw i64 %29, 1
  %31 = and i64 %30, 3
  %32 = icmp ult i64 %28, 24
  br i1 %32, label %78, label %33

33:                                               ; preds = %26
  %34 = and i64 %30, 4611686018427387900
  br label %35

35:                                               ; preds = %35, %33
  %36 = phi i64 [ 0, %33 ], [ %75, %35 ]
  %37 = phi <4 x i32> [ zeroinitializer, %33 ], [ %73, %35 ]
  %38 = phi <4 x i32> [ zeroinitializer, %33 ], [ %74, %35 ]
  %39 = phi i64 [ %34, %33 ], [ %76, %35 ]
  %40 = getelementptr inbounds [12 x i32], [12 x i32]* @__const.main.m.2, i64 0, i64 %36
  %41 = bitcast i32* %40 to <4 x i32>*
  %42 = load <4 x i32>, <4 x i32>* %41, align 16, !tbaa !5
  %43 = getelementptr inbounds i32, i32* %40, i64 4
  %44 = bitcast i32* %43 to <4 x i32>*
  %45 = load <4 x i32>, <4 x i32>* %44, align 16, !tbaa !5
  %46 = add <4 x i32> %42, %37
  %47 = add <4 x i32> %45, %38
  %48 = or i64 %36, 8
  %49 = getelementptr inbounds [12 x i32], [12 x i32]* @__const.main.m.2, i64 0, i64 %48
  %50 = bitcast i32* %49 to <4 x i32>*
  %51 = load <4 x i32>, <4 x i32>* %50, align 16, !tbaa !5
  %52 = getelementptr inbounds i32, i32* %49, i64 4
  %53 = bitcast i32* %52 to <4 x i32>*
  %54 = load <4 x i32>, <4 x i32>* %53, align 16, !tbaa !5
  %55 = add <4 x i32> %51, %46
  %56 = add <4 x i32> %54, %47
  %57 = or i64 %36, 16
  %58 = getelementptr inbounds [12 x i32], [12 x i32]* @__const.main.m.2, i64 0, i64 %57
  %59 = bitcast i32* %58 to <4 x i32>*
  %60 = load <4 x i32>, <4 x i32>* %59, align 16, !tbaa !5
  %61 = getelementptr inbounds i32, i32* %58, i64 4
  %62 = bitcast i32* %61 to <4 x i32>*
  %63 = load <4 x i32>, <4 x i32>* %62, align 16, !tbaa !5
  %64 = add <4 x i32> %60, %55
  %65 = add <4 x i32> %63, %56
  %66 = or i64 %36, 24
  %67 = getelementptr inbounds [12 x i32], [12 x i32]* @__const.main.m.2, i64 0, i64 %66
  %68 = bitcast i32* %67 to <4 x i32>*
  %69 = load <4 x i32>, <4 x i32>* %68, align 16, !tbaa !5
  %70 = getelementptr inbounds i32, i32* %67, i64 4
  %71 = bitcast i32* %70 to <4 x i32>*
  %72 = load <4 x i32>, <4 x i32>* %71, align 16, !tbaa !5
  %73 = add <4 x i32> %69, %64
  %74 = add <4 x i32> %72, %65
  %75 = add nuw i64 %36, 32
  %76 = add i64 %39, -4
  %77 = icmp eq i64 %76, 0
  br i1 %77, label %78, label %35, !llvm.loop !9

78:                                               ; preds = %35, %26
  %79 = phi <4 x i32> [ undef, %26 ], [ %73, %35 ]
  %80 = phi <4 x i32> [ undef, %26 ], [ %74, %35 ]
  %81 = phi i64 [ 0, %26 ], [ %75, %35 ]
  %82 = phi <4 x i32> [ zeroinitializer, %26 ], [ %73, %35 ]
  %83 = phi <4 x i32> [ zeroinitializer, %26 ], [ %74, %35 ]
  %84 = icmp eq i64 %31, 0
  br i1 %84, label %101, label %85

85:                                               ; preds = %78, %85
  %86 = phi i64 [ %98, %85 ], [ %81, %78 ]
  %87 = phi <4 x i32> [ %96, %85 ], [ %82, %78 ]
  %88 = phi <4 x i32> [ %97, %85 ], [ %83, %78 ]
  %89 = phi i64 [ %99, %85 ], [ %31, %78 ]
  %90 = getelementptr inbounds [12 x i32], [12 x i32]* @__const.main.m.2, i64 0, i64 %86
  %91 = bitcast i32* %90 to <4 x i32>*
  %92 = load <4 x i32>, <4 x i32>* %91, align 16, !tbaa !5
  %93 = getelementptr inbounds i32, i32* %90, i64 4
  %94 = bitcast i32* %93 to <4 x i32>*
  %95 = load <4 x i32>, <4 x i32>* %94, align 16, !tbaa !5
  %96 = add <4 x i32> %92, %87
  %97 = add <4 x i32> %95, %88
  %98 = add nuw i64 %86, 8
  %99 = add i64 %89, -1
  %100 = icmp eq i64 %99, 0
  br i1 %100, label %101, label %85, !llvm.loop !12

101:                                              ; preds = %85, %78
  %102 = phi <4 x i32> [ %79, %78 ], [ %96, %85 ]
  %103 = phi <4 x i32> [ %80, %78 ], [ %97, %85 ]
  %104 = add <4 x i32> %103, %102
  %105 = call i32 @llvm.vector.reduce.add.v4i32(<4 x i32> %104)
  %106 = icmp eq i64 %27, %24
  br i1 %106, label %219, label %107

107:                                              ; preds = %22, %101
  %108 = phi i64 [ 0, %22 ], [ %27, %101 ]
  %109 = phi i32 [ 0, %22 ], [ %105, %101 ]
  br label %211

110:                                              ; preds = %2
  br i1 %20, label %111, label %207

111:                                              ; preds = %110
  %112 = add nsw i32 %19, -1
  %113 = zext i32 %112 to i64
  %114 = icmp ult i32 %112, 8
  br i1 %114, label %196, label %115

115:                                              ; preds = %111
  %116 = and i64 %113, 4294967288
  %117 = add nsw i64 %116, -8
  %118 = lshr exact i64 %117, 3
  %119 = add nuw nsw i64 %118, 1
  %120 = and i64 %119, 3
  %121 = icmp ult i64 %117, 24
  br i1 %121, label %167, label %122

122:                                              ; preds = %115
  %123 = and i64 %119, 4611686018427387900
  br label %124

124:                                              ; preds = %124, %122
  %125 = phi i64 [ 0, %122 ], [ %164, %124 ]
  %126 = phi <4 x i32> [ zeroinitializer, %122 ], [ %162, %124 ]
  %127 = phi <4 x i32> [ zeroinitializer, %122 ], [ %163, %124 ]
  %128 = phi i64 [ %123, %122 ], [ %165, %124 ]
  %129 = getelementptr inbounds [12 x i32], [12 x i32]* @__const.main.m, i64 0, i64 %125
  %130 = bitcast i32* %129 to <4 x i32>*
  %131 = load <4 x i32>, <4 x i32>* %130, align 16, !tbaa !5
  %132 = getelementptr inbounds i32, i32* %129, i64 4
  %133 = bitcast i32* %132 to <4 x i32>*
  %134 = load <4 x i32>, <4 x i32>* %133, align 16, !tbaa !5
  %135 = add <4 x i32> %131, %126
  %136 = add <4 x i32> %134, %127
  %137 = or i64 %125, 8
  %138 = getelementptr inbounds [12 x i32], [12 x i32]* @__const.main.m, i64 0, i64 %137
  %139 = bitcast i32* %138 to <4 x i32>*
  %140 = load <4 x i32>, <4 x i32>* %139, align 16, !tbaa !5
  %141 = getelementptr inbounds i32, i32* %138, i64 4
  %142 = bitcast i32* %141 to <4 x i32>*
  %143 = load <4 x i32>, <4 x i32>* %142, align 16, !tbaa !5
  %144 = add <4 x i32> %140, %135
  %145 = add <4 x i32> %143, %136
  %146 = or i64 %125, 16
  %147 = getelementptr inbounds [12 x i32], [12 x i32]* @__const.main.m, i64 0, i64 %146
  %148 = bitcast i32* %147 to <4 x i32>*
  %149 = load <4 x i32>, <4 x i32>* %148, align 16, !tbaa !5
  %150 = getelementptr inbounds i32, i32* %147, i64 4
  %151 = bitcast i32* %150 to <4 x i32>*
  %152 = load <4 x i32>, <4 x i32>* %151, align 16, !tbaa !5
  %153 = add <4 x i32> %149, %144
  %154 = add <4 x i32> %152, %145
  %155 = or i64 %125, 24
  %156 = getelementptr inbounds [12 x i32], [12 x i32]* @__const.main.m, i64 0, i64 %155
  %157 = bitcast i32* %156 to <4 x i32>*
  %158 = load <4 x i32>, <4 x i32>* %157, align 16, !tbaa !5
  %159 = getelementptr inbounds i32, i32* %156, i64 4
  %160 = bitcast i32* %159 to <4 x i32>*
  %161 = load <4 x i32>, <4 x i32>* %160, align 16, !tbaa !5
  %162 = add <4 x i32> %158, %153
  %163 = add <4 x i32> %161, %154
  %164 = add nuw i64 %125, 32
  %165 = add i64 %128, -4
  %166 = icmp eq i64 %165, 0
  br i1 %166, label %167, label %124, !llvm.loop !14

167:                                              ; preds = %124, %115
  %168 = phi <4 x i32> [ undef, %115 ], [ %162, %124 ]
  %169 = phi <4 x i32> [ undef, %115 ], [ %163, %124 ]
  %170 = phi i64 [ 0, %115 ], [ %164, %124 ]
  %171 = phi <4 x i32> [ zeroinitializer, %115 ], [ %162, %124 ]
  %172 = phi <4 x i32> [ zeroinitializer, %115 ], [ %163, %124 ]
  %173 = icmp eq i64 %120, 0
  br i1 %173, label %190, label %174

174:                                              ; preds = %167, %174
  %175 = phi i64 [ %187, %174 ], [ %170, %167 ]
  %176 = phi <4 x i32> [ %185, %174 ], [ %171, %167 ]
  %177 = phi <4 x i32> [ %186, %174 ], [ %172, %167 ]
  %178 = phi i64 [ %188, %174 ], [ %120, %167 ]
  %179 = getelementptr inbounds [12 x i32], [12 x i32]* @__const.main.m, i64 0, i64 %175
  %180 = bitcast i32* %179 to <4 x i32>*
  %181 = load <4 x i32>, <4 x i32>* %180, align 16, !tbaa !5
  %182 = getelementptr inbounds i32, i32* %179, i64 4
  %183 = bitcast i32* %182 to <4 x i32>*
  %184 = load <4 x i32>, <4 x i32>* %183, align 16, !tbaa !5
  %185 = add <4 x i32> %181, %176
  %186 = add <4 x i32> %184, %177
  %187 = add nuw i64 %175, 8
  %188 = add i64 %178, -1
  %189 = icmp eq i64 %188, 0
  br i1 %189, label %190, label %174, !llvm.loop !15

190:                                              ; preds = %174, %167
  %191 = phi <4 x i32> [ %168, %167 ], [ %185, %174 ]
  %192 = phi <4 x i32> [ %169, %167 ], [ %186, %174 ]
  %193 = add <4 x i32> %192, %191
  %194 = call i32 @llvm.vector.reduce.add.v4i32(<4 x i32> %193)
  %195 = icmp eq i64 %116, %113
  br i1 %195, label %207, label %196

196:                                              ; preds = %111, %190
  %197 = phi i64 [ 0, %111 ], [ %116, %190 ]
  %198 = phi i32 [ 0, %111 ], [ %194, %190 ]
  br label %199

199:                                              ; preds = %196, %199
  %200 = phi i64 [ %205, %199 ], [ %197, %196 ]
  %201 = phi i32 [ %204, %199 ], [ %198, %196 ]
  %202 = getelementptr inbounds [12 x i32], [12 x i32]* @__const.main.m, i64 0, i64 %200
  %203 = load i32, i32* %202, align 4, !tbaa !5
  %204 = add nsw i32 %203, %201
  %205 = add nuw nsw i64 %200, 1
  %206 = icmp eq i64 %205, %113
  br i1 %206, label %207, label %199, !llvm.loop !16

207:                                              ; preds = %199, %190, %110
  %208 = phi i32 [ 0, %110 ], [ %194, %190 ], [ %204, %199 ]
  %209 = load i32, i32* %5, align 4, !tbaa !5
  %210 = add nsw i32 %209, %208
  br label %223

211:                                              ; preds = %107, %211
  %212 = phi i64 [ %217, %211 ], [ %108, %107 ]
  %213 = phi i32 [ %216, %211 ], [ %109, %107 ]
  %214 = getelementptr inbounds [12 x i32], [12 x i32]* @__const.main.m.2, i64 0, i64 %212
  %215 = load i32, i32* %214, align 4, !tbaa !5
  %216 = add nsw i32 %215, %213
  %217 = add nuw nsw i64 %212, 1
  %218 = icmp eq i64 %217, %24
  br i1 %218, label %219, label %211, !llvm.loop !18

219:                                              ; preds = %211, %101, %21
  %220 = phi i32 [ 0, %21 ], [ %105, %101 ], [ %216, %211 ]
  %221 = load i32, i32* %5, align 4, !tbaa !5
  %222 = add nsw i32 %221, %220
  br label %223

223:                                              ; preds = %219, %207
  %224 = phi i32 [ %222, %219 ], [ %210, %207 ]
  %225 = call i32 (i8*, ...) @printf(i8* nonnull dereferenceable(1) getelementptr inbounds ([3 x i8], [3 x i8]* @.str.1, i64 0, i64 0), i32 %224)
  call void @llvm.lifetime.end.p0i8(i64 4, i8* nonnull %8) #4
  call void @llvm.lifetime.end.p0i8(i64 4, i8* nonnull %7) #4
  call void @llvm.lifetime.end.p0i8(i64 4, i8* nonnull %6) #4
  ret i32 0
}

; Function Attrs: argmemonly mustprogress nofree nosync nounwind willreturn
declare void @llvm.lifetime.start.p0i8(i64 immarg, i8* nocapture) #1

; Function Attrs: nofree nounwind
declare noundef i32 @__isoc99_scanf(i8* nocapture noundef readonly, ...) local_unnamed_addr #2

; Function Attrs: nofree nounwind
declare noundef i32 @printf(i8* nocapture noundef readonly, ...) local_unnamed_addr #2

; Function Attrs: argmemonly mustprogress nofree nosync nounwind willreturn
declare void @llvm.lifetime.end.p0i8(i64 immarg, i8* nocapture) #1

; Function Attrs: nofree nosync nounwind readnone willreturn
declare i32 @llvm.vector.reduce.add.v4i32(<4 x i32>) #3


!llvm.module.flags = !{!0, !1, !2, !3}
!llvm.ident = !{!4}

!0 = !{i32 1, !"wchar_size", i32 4}
!1 = !{i32 7, !"PIC Level", i32 2}
!2 = !{i32 7, !"PIE Level", i32 2}
!3 = !{i32 7, !"uwtable", i32 1}
!4 = !{!"clang version 13.0.0"}
!5 = !{!6, !6, i64 0}
!6 = !{!"int", !7, i64 0}
!7 = !{!"omnipotent char", !8, i64 0}
!8 = !{!"Simple C/C++ TBAA"}
!9 = distinct !{!9, !10, !11}
!10 = !{!"llvm.loop.mustprogress"}
!11 = !{!"llvm.loop.isvectorized", i32 1}
!12 = distinct !{!12, !13}
!13 = !{!"llvm.loop.unroll.disable"}
!14 = distinct !{!14, !10, !11}
!15 = distinct !{!15, !13}
!16 = distinct !{!16, !10, !17, !11}
!17 = !{!"llvm.loop.unroll.runtime.disable"}
!18 = distinct !{!18, !10, !17, !11}
